target datalayout = "e-m:e-p270:32:32-p271:32:32-p272:64:64-i64:64-i128:128-f80:128-n8:16:32:64-S128"
target triple = "x86_64-pc-linux-gnu"

%struct.Color = type { i8, i8, i8, i8 }
%struct.Vector2 = type { float, float }

; Function Attrs: nounwind uwtable
define void @DrawCircleSectorLines(<2 x float> %0, float noundef %1, float noundef %2, float noundef %3, i32 noundef %4, i32 %5) #0 {
  %7 = alloca %struct.Vector2, align 4
  %8 = alloca %struct.Color, align 1
  %9 = alloca float, align 4
  %10 = alloca float, align 4
  %11 = alloca float, align 4
  %12 = alloca i32, align 4
  %13 = alloca float, align 4
  %14 = alloca i32, align 4
  %15 = alloca float, align 4
  %16 = alloca float, align 4
  %17 = alloca float, align 4
  %18 = alloca i8, align 1
  %19 = alloca i32, align 4
  store <2 x float> %0, ptr %7, align 4
  store i32 %5, ptr %8, align 1
  store float %1, ptr %9, align 4
  store float %2, ptr %10, align 4
  store float %3, ptr %11, align 4
  store i32 %4, ptr %12, align 4
  %20 = load float, ptr %9, align 4
  %21 = fcmp ole float %20, 0.000000e+00
  br i1 %21, label %22, label %23

22:                                               ; preds = %6
  store float 0x3FB99999A0000000, ptr %9, align 4
  br label %23

23:                                               ; preds = %22, %6
  %24 = load float, ptr %11, align 4
  %25 = load float, ptr %10, align 4
  %26 = fcmp olt float %24, %25
  br i1 %26, label %27, label %31

27:                                               ; preds = %23
  call void @llvm.lifetime.start.p0(i64 4, ptr %13) #8
  %28 = load float, ptr %10, align 4
  store float %28, ptr %13, align 4
  %29 = load float, ptr %11, align 4
  store float %29, ptr %10, align 4
  %30 = load float, ptr %13, align 4
  store float %30, ptr %11, align 4
  call void @llvm.lifetime.end.p0(i64 4, ptr %13) #8
  br label %31

31:                                               ; preds = %27, %23
  call void @llvm.lifetime.start.p0(i64 4, ptr %14) #8
  %32 = load float, ptr %11, align 4
  %33 = load float, ptr %10, align 4
  %34 = fsub float %32, %33
  %35 = fdiv float %34, 9.000000e+01
  %36 = call float @llvm.ceil.f32(float %35)
  %37 = fptosi float %36 to i32
  store i32 %37, ptr %14, align 4
  %38 = load i32, ptr %12, align 4
  %39 = load i32, ptr %14, align 4
  %40 = icmp slt i32 %38, %39
  br i1 %40, label %41, label %62

41:                                               ; preds = %31
  call void @llvm.lifetime.start.p0(i64 4, ptr %15) #8
  %42 = load float, ptr %9, align 4
  %43 = fdiv float 5.000000e-01, %42
  %44 = fsub float 1.000000e+00, %43
  %45 = call float @powf(float noundef %44, float noundef 2.000000e+00) #8
  %46 = call float @llvm.fmuladd.f32(float 2.000000e+00, float %45, float -1.000000e+00)
  %47 = call float @acosf(float noundef %46) #8
  store float %47, ptr %15, align 4
  %48 = load float, ptr %11, align 4
  %49 = load float, ptr %10, align 4
  %50 = fsub float %48, %49
  %51 = load float, ptr %15, align 4
  %52 = fdiv float 0x401921FB60000000, %51
  %53 = call float @llvm.ceil.f32(float %52)
  %54 = fmul float %50, %53
  %55 = fdiv float %54, 3.600000e+02
  %56 = fptosi float %55 to i32
  store i32 %56, ptr %12, align 4
  %57 = load i32, ptr %12, align 4
  %58 = icmp sle i32 %57, 0
  br i1 %58, label %59, label %61

59:                                               ; preds = %41
  %60 = load i32, ptr %14, align 4
  store i32 %60, ptr %12, align 4
  br label %61

61:                                               ; preds = %59, %41
  call void @llvm.lifetime.end.p0(i64 4, ptr %15) #8
  br label %62

62:                                               ; preds = %61, %31
  call void @llvm.lifetime.start.p0(i64 4, ptr %16) #8
  %63 = load float, ptr %11, align 4
  %64 = load float, ptr %10, align 4
  %65 = fsub float %63, %64
  %66 = load i32, ptr %12, align 4
  %67 = sitofp i32 %66 to float
  %68 = fdiv float %65, %67
  store float %68, ptr %16, align 4
  call void @llvm.lifetime.start.p0(i64 4, ptr %17) #8
  %69 = load float, ptr %10, align 4
  store float %69, ptr %17, align 4
  call void @llvm.lifetime.start.p0(i64 1, ptr %18) #8
  store i8 1, ptr %18, align 1
  call void @rlBegin(i32 noundef 1)
  %70 = load i8, ptr %18, align 1, !range !3, !noundef !4
  %71 = trunc i8 %70 to i1
  br i1 %71, label %72, label %99

72:                                               ; preds = %62
  %73 = getelementptr inbounds nuw %struct.Color, ptr %8, i32 0, i32 0
  %74 = load i8, ptr %73, align 1
  %75 = getelementptr inbounds nuw %struct.Color, ptr %8, i32 0, i32 1
  %76 = load i8, ptr %75, align 1
  %77 = getelementptr inbounds nuw %struct.Color, ptr %8, i32 0, i32 2
  %78 = load i8, ptr %77, align 1
  %79 = getelementptr inbounds nuw %struct.Color, ptr %8, i32 0, i32 3
  %80 = load i8, ptr %79, align 1
  call void @rlColor4ub(i8 noundef zeroext %74, i8 noundef zeroext %76, i8 noundef zeroext %78, i8 noundef zeroext %80)
  %81 = getelementptr inbounds nuw %struct.Vector2, ptr %7, i32 0, i32 0
  %82 = load float, ptr %81, align 4
  %83 = getelementptr inbounds nuw %struct.Vector2, ptr %7, i32 0, i32 1
  %84 = load float, ptr %83, align 4
  call void @rlVertex2f(float noundef %82, float noundef %84)
  %85 = getelementptr inbounds nuw %struct.Vector2, ptr %7, i32 0, i32 0
  %86 = load float, ptr %85, align 4
  %87 = load float, ptr %17, align 4
  %88 = fmul float 0x3F91DF46A0000000, %87
  %89 = call float @cosf(float noundef %88) #8
  %90 = load float, ptr %9, align 4
  %91 = call float @llvm.fmuladd.f32(float %89, float %90, float %86)
  %92 = getelementptr inbounds nuw %struct.Vector2, ptr %7, i32 0, i32 1
  %93 = load float, ptr %92, align 4
  %94 = load float, ptr %17, align 4
  %95 = fmul float 0x3F91DF46A0000000, %94
  %96 = call float @sinf(float noundef %95) #8
  %97 = load float, ptr %9, align 4
  %98 = call float @llvm.fmuladd.f32(float %96, float %97, float %93)
  call void @rlVertex2f(float noundef %91, float noundef %98)
  br label %99

99:                                               ; preds = %72, %62
  call void @llvm.lifetime.start.p0(i64 4, ptr %19) #8
  store i32 0, ptr %19, align 4
  br label %100

100:                                              ; preds = %149, %99
  %101 = load i32, ptr %19, align 4
  %102 = load i32, ptr %12, align 4
  %103 = icmp slt i32 %101, %102
  br i1 %103, label %105, label %104

104:                                              ; preds = %100
  call void @llvm.lifetime.end.p0(i64 4, ptr %19) #8
  br label %152

105:                                              ; preds = %100
  %106 = getelementptr inbounds nuw %struct.Color, ptr %8, i32 0, i32 0
  %107 = load i8, ptr %106, align 1
  %108 = getelementptr inbounds nuw %struct.Color, ptr %8, i32 0, i32 1
  %109 = load i8, ptr %108, align 1
  %110 = getelementptr inbounds nuw %struct.Color, ptr %8, i32 0, i32 2
  %111 = load i8, ptr %110, align 1
  %112 = getelementptr inbounds nuw %struct.Color, ptr %8, i32 0, i32 3
  %113 = load i8, ptr %112, align 1
  call void @rlColor4ub(i8 noundef zeroext %107, i8 noundef zeroext %109, i8 noundef zeroext %111, i8 noundef zeroext %113)
  %114 = getelementptr inbounds nuw %struct.Vector2, ptr %7, i32 0, i32 0
  %115 = load float, ptr %114, align 4
  %116 = load float, ptr %17, align 4
  %117 = fmul float 0x3F91DF46A0000000, %116
  %118 = call float @cosf(float noundef %117) #8
  %119 = load float, ptr %9, align 4
  %120 = call float @llvm.fmuladd.f32(float %118, float %119, float %115)
  %121 = getelementptr inbounds nuw %struct.Vector2, ptr %7, i32 0, i32 1
  %122 = load float, ptr %121, align 4
  %123 = load float, ptr %17, align 4
  %124 = fmul float 0x3F91DF46A0000000, %123
  %125 = call float @sinf(float noundef %124) #8
  %126 = load float, ptr %9, align 4
  %127 = call float @llvm.fmuladd.f32(float %125, float %126, float %122)
  call void @rlVertex2f(float noundef %120, float noundef %127)
  %128 = getelementptr inbounds nuw %struct.Vector2, ptr %7, i32 0, i32 0
  %129 = load float, ptr %128, align 4
  %130 = load float, ptr %17, align 4
  %131 = load float, ptr %16, align 4
  %132 = fadd float %130, %131
  %133 = fmul float 0x3F91DF46A0000000, %132
  %134 = call float @cosf(float noundef %133) #8
  %135 = load float, ptr %9, align 4
  %136 = call float @llvm.fmuladd.f32(float %134, float %135, float %129)
  %137 = getelementptr inbounds nuw %struct.Vector2, ptr %7, i32 0, i32 1
  %138 = load float, ptr %137, align 4
  %139 = load float, ptr %17, align 4
  %140 = load float, ptr %16, align 4
  %141 = fadd float %139, %140
  %142 = fmul float 0x3F91DF46A0000000, %141
  %143 = call float @sinf(float noundef %142) #8
  %144 = load float, ptr %9, align 4
  %145 = call float @llvm.fmuladd.f32(float %143, float %144, float %138)
  call void @rlVertex2f(float noundef %136, float noundef %145)
  %146 = load float, ptr %16, align 4
  %147 = load float, ptr %17, align 4
  %148 = fadd float %147, %146
  store float %148, ptr %17, align 4
  br label %149

149:                                              ; preds = %105
  %150 = load i32, ptr %19, align 4
  %151 = add nsw i32 %150, 1
  store i32 %151, ptr %19, align 4
  br label %100

152:                                              ; preds = %104
  %153 = load i8, ptr %18, align 1, !range !3, !noundef !4
  %154 = trunc i8 %153 to i1
  br i1 %154, label %155, label %182

155:                                              ; preds = %152
  %156 = getelementptr inbounds nuw %struct.Color, ptr %8, i32 0, i32 0
  %157 = load i8, ptr %156, align 1
  %158 = getelementptr inbounds nuw %struct.Color, ptr %8, i32 0, i32 1
  %159 = load i8, ptr %158, align 1
  %160 = getelementptr inbounds nuw %struct.Color, ptr %8, i32 0, i32 2
  %161 = load i8, ptr %160, align 1
  %162 = getelementptr inbounds nuw %struct.Color, ptr %8, i32 0, i32 3
  %163 = load i8, ptr %162, align 1
  call void @rlColor4ub(i8 noundef zeroext %157, i8 noundef zeroext %159, i8 noundef zeroext %161, i8 noundef zeroext %163)
  %164 = getelementptr inbounds nuw %struct.Vector2, ptr %7, i32 0, i32 0
  %165 = load float, ptr %164, align 4
  %166 = getelementptr inbounds nuw %struct.Vector2, ptr %7, i32 0, i32 1
  %167 = load float, ptr %166, align 4
  call void @rlVertex2f(float noundef %165, float noundef %167)
  %168 = getelementptr inbounds nuw %struct.Vector2, ptr %7, i32 0, i32 0
  %169 = load float, ptr %168, align 4
  %170 = load float, ptr %17, align 4
  %171 = fmul float 0x3F91DF46A0000000, %170
  %172 = call float @cosf(float noundef %171) #8
  %173 = load float, ptr %9, align 4
  %174 = call float @llvm.fmuladd.f32(float %172, float %173, float %169)
  %175 = getelementptr inbounds nuw %struct.Vector2, ptr %7, i32 0, i32 1
  %176 = load float, ptr %175, align 4
  %177 = load float, ptr %17, align 4
  %178 = fmul float 0x3F91DF46A0000000, %177
  %179 = call float @sinf(float noundef %178) #8
  %180 = load float, ptr %9, align 4
  %181 = call float @llvm.fmuladd.f32(float %179, float %180, float %176)
  call void @rlVertex2f(float noundef %174, float noundef %181)
  br label %182

182:                                              ; preds = %155, %152
  call void @rlEnd()
  call void @llvm.lifetime.end.p0(i64 1, ptr %18) #8
  call void @llvm.lifetime.end.p0(i64 4, ptr %17) #8
  call void @llvm.lifetime.end.p0(i64 4, ptr %16) #8
  call void @llvm.lifetime.end.p0(i64 4, ptr %14) #8
  ret void
}