; Function Attrs: nounwind uwtable
define void @DrawCircleSectorLines(<2 x float> %0, float noundef %1, float noundef %2, float noundef %3, i32 noundef %4, i32 %5) local_unnamed_addr #4 {
  %.sroa.0.0.extract.trunc = trunc i32 %5 to i8
  %.sroa.4.0.extract.shift = lshr i32 %5, 8
  %.sroa.4.0.extract.trunc = trunc i32 %.sroa.4.0.extract.shift to i8
  %.sroa.7.0.extract.shift = lshr i32 %5, 16
  %.sroa.7.0.extract.trunc = trunc i32 %.sroa.7.0.extract.shift to i8
  %.sroa.10.0.extract.shift = lshr i32 %5, 24
  %.sroa.10.0.extract.trunc = trunc nuw i32 %.sroa.10.0.extract.shift to i8
  %7 = fcmp ugt float %1, 0.000000e+00
  %.073 = select i1 %7, float %1, float 0x3FB99999A0000000
  %8 = fcmp olt float %3, %2
  %.076 = select i1 %8, float %2, float %3
  %.075 = select i1 %8, float %3, float %2
  %9 = fsub float %.076, %.075
  %10 = fdiv float %9, 9.000000e+01
  %11 = tail call float @llvm.ceil.f32(float %10)
  %12 = fptosi float %11 to i32
  %13 = icmp slt i32 %4, %12
  br i1 %13, label %14, label %25

14:                                               ; preds = %6
  %15 = fdiv float 5.000000e-01, %.073
  %16 = fsub float 1.000000e+00, %15
  %square = fmul float %16, %16
  %17 = tail call float @llvm.fmuladd.f32(float %square, float 2.000000e+00, float -1.000000e+00)
  %18 = tail call float @acosf(float noundef %17) #16
  %19 = fdiv float 0x401921FB60000000, %18
  %20 = tail call float @llvm.ceil.f32(float %19)
  %21 = fmul float %9, %20
  %22 = fdiv float %21, 3.600000e+02
  %23 = fptosi float %22 to i32
  %24 = icmp slt i32 %23, 1
  %spec.select = select i1 %24, i32 %12, i32 %23
  br label %25

25:                                               ; preds = %14, %6
  %.077 = phi i32 [ %spec.select, %14 ], [ %4, %6 ]
  %26 = sitofp i32 %.077 to float
  %27 = fdiv float %9, %26
  tail call void @rlBegin(i32 noundef 1) #16
  tail call void @rlColor4ub(i8 noundef zeroext %.sroa.0.0.extract.trunc, i8 noundef zeroext %.sroa.4.0.extract.trunc, i8 noundef zeroext %.sroa.7.0.extract.trunc, i8 noundef zeroext %.sroa.10.0.extract.trunc) #16
  %.sroa.052.0.vec.extract = extractelement <2 x float> %0, i64 0
  %.sroa.052.4.vec.extract = extractelement <2 x float> %0, i64 1
  tail call void @rlVertex2f(float noundef %.sroa.052.0.vec.extract, float noundef %.sroa.052.4.vec.extract) #16
  %28 = fmul float %.075, 0x3F91DF46A0000000
  %29 = tail call float @cosf(float noundef %28) #16
  %30 = tail call float @llvm.fmuladd.f32(float %29, float %.073, float %.sroa.052.0.vec.extract)
  %31 = tail call float @sinf(float noundef %28) #16
  %32 = tail call float @llvm.fmuladd.f32(float %31, float %.073, float %.sroa.052.4.vec.extract)
  tail call void @rlVertex2f(float noundef %30, float noundef %32) #16
  %33 = icmp sgt i32 %.077, 0
  br i1 %33, label %.lr.ph, label %._crit_edge

.lr.ph:                                           ; preds = %25, %.lr.ph
  %.087 = phi i32 [ %45, %.lr.ph ], [ 0, %25 ]
  %.07486 = phi float [ %39, %.lr.ph ], [ %.075, %25 ]
  tail call void @rlColor4ub(i8 noundef zeroext %.sroa.0.0.extract.trunc, i8 noundef zeroext %.sroa.4.0.extract.trunc, i8 noundef zeroext %.sroa.7.0.extract.trunc, i8 noundef zeroext %.sroa.10.0.extract.trunc) #16
  %34 = fmul float %.07486, 0x3F91DF46A0000000
  %35 = tail call float @cosf(float noundef %34) #16
  %36 = tail call float @llvm.fmuladd.f32(float %35, float %.073, float %.sroa.052.0.vec.extract)
  %37 = tail call float @sinf(float noundef %34) #16
  %38 = tail call float @llvm.fmuladd.f32(float %37, float %.073, float %.sroa.052.4.vec.extract)
  tail call void @rlVertex2f(float noundef %36, float noundef %38) #16
  %39 = fadd float %27, %.07486
  %40 = fmul float %39, 0x3F91DF46A0000000
  %41 = tail call float @cosf(float noundef %40) #16
  %42 = tail call float @llvm.fmuladd.f32(float %41, float %.073, float %.sroa.052.0.vec.extract)
  %43 = tail call float @sinf(float noundef %40) #16
  %44 = tail call float @llvm.fmuladd.f32(float %43, float %.073, float %.sroa.052.4.vec.extract)
  tail call void @rlVertex2f(float noundef %42, float noundef %44) #16
  %45 = add nuw nsw i32 %.087, 1
  %exitcond.not = icmp eq i32 %45, %.077
  br i1 %exitcond.not, label %._crit_edge, label %.lr.ph

._crit_edge:                                      ; preds = %.lr.ph, %25
  %.pre-phi = phi float [ %28, %25 ], [ %40, %.lr.ph ]
  tail call void @rlColor4ub(i8 noundef zeroext %.sroa.0.0.extract.trunc, i8 noundef zeroext %.sroa.4.0.extract.trunc, i8 noundef zeroext %.sroa.7.0.extract.trunc, i8 noundef zeroext %.sroa.10.0.extract.trunc) #16
  tail call void @rlVertex2f(float noundef %.sroa.052.0.vec.extract, float noundef %.sroa.052.4.vec.extract) #16
  %46 = tail call float @cosf(float noundef %.pre-phi) #16
  %47 = tail call float @llvm.fmuladd.f32(float %46, float %.073, float %.sroa.052.0.vec.extract)
  %48 = tail call float @sinf(float noundef %.pre-phi) #16
  %49 = tail call float @llvm.fmuladd.f32(float %48, float %.073, float %.sroa.052.4.vec.extract)
  tail call void @rlVertex2f(float noundef %47, float noundef %49) #16
  tail call void @rlEnd() #16
  ret void
}